target datalayout = "e-m:e-p270:32:32-p271:32:32-p272:64:64-i64:64-i128:128-f80:128-n8:16:32:64-S128"
target triple = "x86_64-pc-linux-gnu"

%class.MutexUnlocker = type <{ ptr, i8, [7 x i8] }>
%class.outputStream = type { ptr, i32, i8, i32, i64, %class.TimeStamp, ptr, i64 }
%class.TimeStamp = type { i64 }

@tty = external global ptr, align 8
@UseJVMCINativeLibrary = external global i8, align 1
@JVMCICompilerIdleDelay = external global i32, align 4
@MethodCompileQueue_lock = external global ptr, align 8
@.str.10 = private unnamed_addr constant [31 x i8] c"releasing idle compiler thread\00", align 1

; Function Attrs: mustprogress nounwind uwtable
define linkonce_odr hidden void @_ZN13MutexUnlockerD2Ev(ptr noundef nonnull align 8 dereferenceable(9) %0) unnamed_addr #1 comdat align 2 {
  %2 = alloca ptr, align 8
  store ptr %0, ptr %2, align 8
  %3 = load ptr, ptr %2, align 8
  %4 = getelementptr inbounds %class.MutexUnlocker, ptr %3, i32 0, i32 1
  %5 = load i8, ptr %4, align 8
  %6 = trunc i8 %5 to i1
  br i1 %6, label %7, label %10

7:                                                ; preds = %1
  %8 = getelementptr inbounds %class.MutexUnlocker, ptr %3, i32 0, i32 0
  %9 = load ptr, ptr %8, align 8
  call void @_ZN5Mutex28lock_without_safepoint_checkEv(ptr noundef nonnull align 8 dereferenceable(104) %9)
  br label %13

10:                                               ; preds = %1
  %11 = getelementptr inbounds %class.MutexUnlocker, ptr %3, i32 0, i32 0
  %12 = load ptr, ptr %11, align 8
  call void @_ZN5Mutex4lockEv(ptr noundef nonnull align 8 dereferenceable(104) %12)
  br label %13

13:                                               ; preds = %10, %7
  ret void
}

; Function Attrs: mustprogress nounwind uwtable
define linkonce_odr hidden void @_ZN13MutexUnlockerC2EP5MutexNS0_18SafepointCheckFlagE(ptr noundef nonnull align 8 dereferenceable(9) %0, ptr noundef %1, i32 noundef %2) unnamed_addr #1 comdat align 2 {
  %4 = alloca ptr, align 8
  %5 = alloca ptr, align 8
  %6 = alloca i32, align 4
  store ptr %0, ptr %4, align 8
  store ptr %1, ptr %5, align 8
  store i32 %2, ptr %6, align 4
  %7 = load ptr, ptr %4, align 8
  %8 = getelementptr inbounds %class.MutexUnlocker, ptr %7, i32 0, i32 0
  %9 = load ptr, ptr %5, align 8
  store ptr %9, ptr %8, align 8
  %10 = getelementptr inbounds %class.MutexUnlocker, ptr %7, i32 0, i32 1
  %11 = load i32, ptr %6, align 4
  %12 = icmp eq i32 %11, 1
  %13 = zext i1 %12 to i8
  store i8 %13, ptr %10, align 8
  %14 = getelementptr inbounds %class.MutexUnlocker, ptr %7, i32 0, i32 0
  %15 = load ptr, ptr %14, align 8
  call void @_ZN5Mutex6unlockEv(ptr noundef nonnull align 8 dereferenceable(104) %15)
  ret void
}

; Function Attrs: mustprogress nounwind uwtable
define linkonce_odr hidden noundef nonnull align 8 dereferenceable(8) ptr @_ZN12outputStream10time_stampEv(ptr noundef nonnull align 8 dereferenceable(56) %0) #1 comdat align 2 {
  %2 = alloca ptr, align 8
  store ptr %0, ptr %2, align 8
  %3 = load ptr, ptr %2, align 8
  %4 = getelementptr inbounds %class.outputStream, ptr %3, i32 0, i32 5
  ret ptr %4
}

; Function Attrs: mustprogress nounwind uwtable
define hidden void @_ZN13JVMCICompiler14on_empty_queueEP12CompileQueueP14CompilerThread(ptr noundef nonnull align 8 dereferenceable(200) %0, ptr noundef %1, ptr noundef %2) unnamed_addr #1 align 2 {
  %4 = alloca ptr, align 8
  %5 = alloca ptr, align 8
  %6 = alloca ptr, align 8
  %7 = alloca i32, align 4
  %8 = alloca ptr, align 8
  %9 = alloca i8, align 1
  %10 = alloca %class.MutexUnlocker, align 8
  store ptr %0, ptr %4, align 8
  store ptr %1, ptr %5, align 8
  store ptr %2, ptr %6, align 8
  %11 = load i8, ptr @UseJVMCINativeLibrary, align 1
  %12 = trunc i8 %11 to i1
  br i1 %12, label %13, label %45

13:                                               ; preds = %3
  %14 = load i32, ptr @JVMCICompilerIdleDelay, align 4
  store i32 %14, ptr %7, align 4
  %15 = load ptr, ptr %6, align 8
  %16 = call noundef ptr @_ZN5JVMCI16compiler_runtimeEP10JavaThreadb(ptr noundef %15, i1 noundef zeroext false)
  store ptr %16, ptr %8, align 8
  %17 = load ptr, ptr %8, align 8
  %18 = icmp ne ptr %17, null
  br i1 %18, label %19, label %44

19:                                               ; preds = %13
  %20 = load i32, ptr %7, align 4
  %21 = icmp sgt i32 %20, 0
  br i1 %21, label %22, label %44

22:                                               ; preds = %19
  %23 = load ptr, ptr @tty, align 8
  %24 = call noundef nonnull align 8 dereferenceable(8) ptr @_ZN12outputStream10time_stampEv(ptr noundef nonnull align 8 dereferenceable(56) %23)
  %25 = call noundef i64 @_ZNK9TimeStamp12millisecondsEv(ptr noundef nonnull align 8 dereferenceable(8) %24)
  %26 = icmp sgt i64 %25, 1000
  br i1 %26, label %27, label %44

27:                                               ; preds = %22
  %28 = load ptr, ptr @MethodCompileQueue_lock, align 8
  %29 = load i32, ptr %7, align 4
  %30 = sext i32 %29 to i64
  %31 = call noundef zeroext i1 @_ZN7Monitor4waitEm(ptr noundef nonnull align 8 dereferenceable(104) %28, i64 noundef %30)
  %32 = zext i1 %31 to i8
  store i8 %32, ptr %9, align 1
  %33 = load ptr, ptr @MethodCompileQueue_lock, align 8
  call void @_ZN13MutexUnlockerC2EP5MutexNS0_18SafepointCheckFlagE(ptr noundef nonnull align 8 dereferenceable(9) %10, ptr noundef %33, i32 noundef 0)
  %34 = load i8, ptr %9, align 1
  %35 = trunc i8 %34 to i1
  br i1 %35, label %36, label %40

36:                                               ; preds = %27
  %37 = load ptr, ptr %8, align 8
  %38 = load ptr, ptr %6, align 8
  %39 = call noundef zeroext i1 @_ZN12JVMCIRuntime13detach_threadEP10JavaThreadPKcb(ptr noundef nonnull align 8 dereferenceable(93) %37, ptr noundef %38, ptr noundef @.str.10, i1 noundef zeroext true)
  br label %43

40:                                               ; preds = %27
  %41 = load ptr, ptr %8, align 8
  %42 = load ptr, ptr %6, align 8
  call void @_ZN12JVMCIRuntime6repackEP10JavaThread(ptr noundef nonnull align 8 dereferenceable(93) %41, ptr noundef %42)
  br label %43

43:                                               ; preds = %40, %36
  call void @_ZN13MutexUnlockerD2Ev(ptr noundef nonnull align 8 dereferenceable(9) %10) #9
  br label %44

44:                                               ; preds = %43, %22, %19, %13
  br label %45

45:                                               ; preds = %44, %3
  ret void
}