; Function Attrs: mustprogress nounwind uwtable
define hidden void @_ZN13JVMCICompiler14on_empty_queueEP12CompileQueueP14CompilerThread(ptr nocapture nonnull readnone align 8 %0, ptr nocapture readnone %1, ptr noundef %2) unnamed_addr #1 align 2 {
  %4 = load i8, ptr @UseJVMCINativeLibrary, align 1
  %5 = trunc i8 %4 to i1
  br i1 %5, label %6, label %24

6:                                                ; preds = %3
  %7 = load i32, ptr @JVMCICompilerIdleDelay, align 4
  %8 = tail call noundef ptr @_ZN5JVMCI16compiler_runtimeEP10JavaThreadb(ptr noundef %2, i1 noundef zeroext false) #10
  %9 = icmp ne ptr %8, null
  %10 = icmp sgt i32 %7, 0
  %or.cond = select i1 %9, i1 %10, i1 false
  br i1 %or.cond, label %11, label %24

11:                                               ; preds = %6
  %12 = load ptr, ptr @tty, align 8
  %13 = getelementptr inbounds i8, ptr %12, i64 32
  %14 = tail call noundef i64 @_ZNK9TimeStamp12millisecondsEv(ptr noundef nonnull align 8 dereferenceable(8) %13) #10
  %15 = icmp sgt i64 %14, 1000
  br i1 %15, label %16, label %24

16:                                               ; preds = %11
  %17 = load ptr, ptr @MethodCompileQueue_lock, align 8
  %18 = zext nneg i32 %7 to i64
  %19 = tail call noundef zeroext i1 @_ZN7Monitor4waitEm(ptr noundef nonnull align 8 dereferenceable(104) %17, i64 noundef %18) #10
  %20 = load ptr, ptr @MethodCompileQueue_lock, align 8
  tail call void @_ZN5Mutex6unlockEv(ptr noundef nonnull align 8 dereferenceable(104) %20) #10
  br i1 %19, label %21, label %23

21:                                               ; preds = %16
  %22 = tail call noundef zeroext i1 @_ZN12JVMCIRuntime13detach_threadEP10JavaThreadPKcb(ptr noundef nonnull align 8 dereferenceable(93) %8, ptr noundef %2, ptr noundef nonnull @.str.10, i1 noundef zeroext true) #10
  br label %_ZN13MutexUnlockerD2Ev.exit

23:                                               ; preds = %16
  tail call void @_ZN12JVMCIRuntime6repackEP10JavaThread(ptr noundef nonnull align 8 dereferenceable(93) %8, ptr noundef %2) #10
  br label %_ZN13MutexUnlockerD2Ev.exit

_ZN13MutexUnlockerD2Ev.exit:                      ; preds = %23, %21
  tail call void @_ZN5Mutex4lockEv(ptr noundef nonnull align 8 dereferenceable(104) %20) #10
  br label %24

24:                                               ; preds = %6, %11, %_ZN13MutexUnlockerD2Ev.exit, %3
  ret void
}